(dp1
S'ad'
p2
c__builtin__
slice
p3
(I14
I26
NtRp4
sS'f1d_hyper_mean'
p5
g3
(I40
I41
NtRp6
sS'logvar_hyper_logvar'
p7
g3
(I55
I56
NtRp8
sS'f1d'
p9
g3
(I28
I40
NtRp10
sS'mean_hyper_mean'
p11
g3
(I12
I13
NtRp12
sS'logvar'
p13
g3
(I42
I54
NtRp14
sS'logvar_hyper_mean'
p15
g3
(I54
I55
NtRp16
sS'ad_hyper_logvar'
p17
g3
(I27
I28
NtRp18
sS'ad_hyper_mean'
p19
g3
(I26
I27
NtRp20
sS'mean_hyper_logvar'
p21
g3
(I13
I14
NtRp22
sS'f1d_hyper_logvar'
p23
g3
(I41
I42
NtRp24
sS'mean'
p25
g3
(I0
I12
NtRp26
s.